target datalayout = "e-m:e-p270:32:32-p271:32:32-p272:64:64-i64:64-i128:128-f80:128-n8:16:32:64-S128"
target triple = "x86_64-pc-linux-gnu"

%class.value_factory = type <{ ptr, ptr, i32, [4 x i8] }>
%class.basic_factory = type { %class.value_factory.base, %class.random_gen }
%class.value_factory.base = type <{ ptr, ptr, i32 }>
%class.random_gen = type { i32 }

; Function Attrs: mustprogress nounwind uwtable
define linkonce_odr hidden void @_ZN13value_factoryD2Ev(ptr noundef nonnull align 8 dereferenceable(20) %0) unnamed_addr #4 comdat align 2 {
  %2 = alloca ptr, align 8
  store ptr %0, ptr %2, align 8, !tbaa !3
  ret void
}

; Function Attrs: mustprogress nounwind uwtable
define linkonce_odr hidden void @_ZN10random_genC2Ej(ptr noundef nonnull align 4 dereferenceable(4) %0, i32 noundef %1) unnamed_addr #4 comdat align 2 {
  %3 = alloca ptr, align 8
  %4 = alloca i32, align 4
  store ptr %0, ptr %3, align 8, !tbaa !18
  store i32 %1, ptr %4, align 4, !tbaa !10
  %5 = load ptr, ptr %3, align 8
  %6 = getelementptr inbounds nuw %class.random_gen, ptr %5, i32 0, i32 0
  %7 = load i32, ptr %4, align 4, !tbaa !10
  store i32 %7, ptr %6, align 4, !tbaa !20
  ret void
}

; Function Attrs: mustprogress nounwind uwtable
define hidden void @_ZN13value_factoryC2ER11ast_manageri(ptr noundef nonnull align 8 dereferenceable(20) %0, ptr noundef nonnull align 8 dereferenceable(976) %1, i32 noundef %2) unnamed_addr #4 align 2 {
  %4 = alloca ptr, align 8
  %5 = alloca ptr, align 8
  %6 = alloca i32, align 4
  store ptr %0, ptr %4, align 8, !tbaa !3
  store ptr %1, ptr %5, align 8, !tbaa !8
  store i32 %2, ptr %6, align 4, !tbaa !10
  %7 = load ptr, ptr %4, align 8
  store ptr getelementptr inbounds inrange(-16, 48) ({ [8 x ptr] }, ptr @_ZTV13value_factory, i32 0, i32 0, i32 2), ptr %7, align 8, !tbaa !12
  %8 = getelementptr inbounds nuw %class.value_factory, ptr %7, i32 0, i32 1
  %9 = load ptr, ptr %5, align 8, !tbaa !8
  store ptr %9, ptr %8, align 8, !tbaa !8
  %10 = getelementptr inbounds nuw %class.value_factory, ptr %7, i32 0, i32 2
  %11 = load i32, ptr %6, align 4, !tbaa !10
  store i32 %11, ptr %10, align 8, !tbaa !14
  ret void
}

; Function Attrs: mustprogress nounwind uwtable
define linkonce_odr hidden noundef i32 @_ZNK11ast_manager19get_basic_family_idEv(ptr noundef nonnull align 8 dereferenceable(976) %0) #4 comdat align 2 {
  %2 = alloca ptr, align 8
  store ptr %0, ptr %2, align 8, !tbaa !8
  ret i32 0
}

; Function Attrs: mustprogress uwtable
define hidden void @_ZN13basic_factoryC2ER11ast_managerj(ptr noundef nonnull align 8 dereferenceable(24) %0, ptr noundef nonnull align 8 dereferenceable(976) %1, i32 noundef %2) unnamed_addr #5 align 2 personality ptr @__gxx_personality_v0 {
  %4 = alloca ptr, align 8
  %5 = alloca ptr, align 8
  %6 = alloca i32, align 4
  %7 = alloca ptr, align 8
  %8 = alloca i32, align 4
  store ptr %0, ptr %4, align 8, !tbaa !16
  store ptr %1, ptr %5, align 8, !tbaa !8
  store i32 %2, ptr %6, align 4, !tbaa !10
  %9 = load ptr, ptr %4, align 8
  %10 = load ptr, ptr %5, align 8, !tbaa !8
  %11 = load ptr, ptr %5, align 8, !tbaa !8
  %12 = call noundef i32 @_ZNK11ast_manager19get_basic_family_idEv(ptr noundef nonnull align 8 dereferenceable(976) %11)
  call void @_ZN13value_factoryC2ER11ast_manageri(ptr noundef nonnull align 8 dereferenceable(20) %9, ptr noundef nonnull align 8 dereferenceable(976) %10, i32 noundef %12)
  store ptr getelementptr inbounds inrange(-16, 48) ({ [8 x ptr] }, ptr @_ZTV13basic_factory, i32 0, i32 0, i32 2), ptr %9, align 8, !tbaa !12
  %13 = getelementptr inbounds nuw %class.basic_factory, ptr %9, i32 0, i32 1
  %14 = load i32, ptr %6, align 4, !tbaa !10
  invoke void @_ZN10random_genC2Ej(ptr noundef nonnull align 4 dereferenceable(4) %13, i32 noundef %14)
          to label %15 unwind label %16

15:                                               ; preds = %3
  ret void

16:                                               ; preds = %3
  %17 = landingpad { ptr, i32 }
          cleanup
  %18 = extractvalue { ptr, i32 } %17, 0
  store ptr %18, ptr %7, align 8
  %19 = extractvalue { ptr, i32 } %17, 1
  store i32 %19, ptr %8, align 4
  call void @_ZN13value_factoryD2Ev(ptr noundef nonnull align 8 dereferenceable(20) %9) #3
  br label %20

20:                                               ; preds = %16
  %21 = load ptr, ptr %7, align 8
  %22 = load i32, ptr %8, align 4
  %23 = insertvalue { ptr, i32 } poison, ptr %21, 0
  %24 = insertvalue { ptr, i32 } %23, i32 %22, 1
  resume { ptr, i32 } %24
}